; Function Attrs: nounwind uwtable
define void @lv_obj_set_content_height(ptr noundef %0, i32 noundef %1) local_unnamed_addr #0 {
  %3 = alloca %union.lv_style_value_t, align 8
  %4 = tail call ptr @lv_obj_get_style_prop(ptr noundef %0, i32 noundef 0, i8 noundef zeroext 16) #8
  %5 = ptrtoint ptr %4 to i64
  %.sroa.0.0.extract.trunc.i.i = trunc i64 %5 to i32
  %6 = tail call ptr @lv_obj_get_style_prop(ptr noundef %0, i32 noundef 0, i8 noundef zeroext 48) #8
  %7 = ptrtoint ptr %6 to i64
  %.sroa.0.0.extract.trunc.i9.i = trunc i64 %7 to i32
  %8 = tail call ptr @lv_obj_get_style_prop(ptr noundef %0, i32 noundef 0, i8 noundef zeroext 52) #8
  %9 = ptrtoint ptr %8 to i64
  %10 = and i64 %9, 2
  %.not.i = icmp eq i64 %10, 0
  %11 = select i1 %.not.i, i32 0, i32 %.sroa.0.0.extract.trunc.i9.i
  %12 = tail call ptr @lv_obj_get_style_prop(ptr noundef %0, i32 noundef 0, i8 noundef zeroext 17) #8
  %13 = ptrtoint ptr %12 to i64
  %.sroa.0.0.extract.trunc.i.i5 = trunc i64 %13 to i32
  %14 = tail call ptr @lv_obj_get_style_prop(ptr noundef %0, i32 noundef 0, i8 noundef zeroext 48) #8
  %15 = ptrtoint ptr %14 to i64
  %.sroa.0.0.extract.trunc.i9.i6 = trunc i64 %15 to i32
  %16 = tail call ptr @lv_obj_get_style_prop(ptr noundef %0, i32 noundef 0, i8 noundef zeroext 52) #8
  %17 = ptrtoint ptr %16 to i64
  %18 = and i64 %17, 1
  %.not.i7 = icmp eq i64 %18, 0
  %19 = select i1 %.not.i7, i32 0, i32 %.sroa.0.0.extract.trunc.i9.i6
  %20 = add i32 %1, %.sroa.0.0.extract.trunc.i.i
  %21 = add i32 %20, %.sroa.0.0.extract.trunc.i.i5
  %22 = add i32 %21, %11
  %23 = add i32 %22, %19
  call void @llvm.lifetime.start.p0(i64 8, ptr nonnull %3) #8
  %24 = call i32 @lv_obj_get_local_style_prop(ptr noundef %0, i8 noundef zeroext 2, ptr noundef nonnull %3, i32 noundef 0) #8
  switch i32 %24, label %lv_obj_set_height.exit [
    i32 1, label %25
    i32 0, label %27
  ]

25:                                               ; preds = %2
  %26 = load i32, ptr %3, align 8, !tbaa !3
  %.not.i8 = icmp eq i32 %26, %23
  br i1 %.not.i8, label %lv_obj_set_height.exit, label %27

27:                                               ; preds = %25, %2
  call void @lv_obj_set_style_height(ptr noundef %0, i32 noundef %23, i32 noundef 0) #8
  br label %lv_obj_set_height.exit

lv_obj_set_height.exit:                           ; preds = %2, %25, %27
  call void @llvm.lifetime.end.p0(i64 8, ptr nonnull %3) #8
  ret void
}